target datalayout = "e-m:e-p270:32:32-p271:32:32-p272:64:64-i64:64-i128:128-f80:128-n8:16:32:64-S128"
target triple = "x86_64-pc-linux-gnu"

%struct.ZSTD_customMem = type { ptr, ptr, ptr }
%struct.ZSTD_frameParameters = type { i32, i32, i32 }
%struct.ZSTD_compressionParameters = type { i32, i32, i32, i32, i32, i32, i32 }
%struct.ZSTD_CCtx_s = type { i32, i32, i32, %struct.ZSTD_CCtx_params_s, %struct.ZSTD_CCtx_params_s, %struct.ZSTD_CCtx_params_s, i32, i64, %struct.ZSTD_cwksp, i64, i64, i64, i64, %struct.XXH64_state_s, %struct.ZSTD_customMem, ptr, i64, %struct.SeqCollector, i32, i32, %struct.seqStore_t, %struct.ldmState_t, ptr, i64, %struct.rawSeqStore_t, %struct.ZSTD_blockState_t, ptr, i32, ptr, i64, i64, i64, i64, ptr, i64, i64, i64, i32, i32, %struct.ZSTD_inBuffer_s, i64, i64, %struct.ZSTD_localDict, ptr, %struct.ZSTD_prefixDict_s, i64, %struct.ZSTD_blockSplitCtx, %struct.ZSTD_externalMatchCtx }
%struct.ZSTD_CCtx_params_s = type { i32, %struct.ZSTD_compressionParameters, %struct.ZSTD_frameParameters, i32, i32, i64, i32, i32, i32, i32, i64, i32, i32, %struct.ldmParams_t, i32, i32, i32, i32, i32, i32, i32, i32, %struct.ZSTD_customMem, i32, i32, i32, i64, i32 }
%struct.ldmParams_t = type { i32, i32, i32, i32, i32, i32 }
%struct.ZSTD_cwksp = type { ptr, ptr, ptr, ptr, ptr, ptr, ptr, i8, i32, i32, i32 }
%struct.XXH64_state_s = type { i64, [4 x i64], [4 x i64], i32, i32, i64 }
%struct.SeqCollector = type { i32, ptr, i64, i64 }
%struct.seqStore_t = type { ptr, ptr, ptr, ptr, ptr, ptr, ptr, i64, i64, i32, i32 }
%struct.ldmState_t = type { %struct.ZSTD_window_t, ptr, i32, ptr, [64 x i64], [64 x %struct.ldmMatchCandidate_t] }
%struct.ZSTD_window_t = type { ptr, ptr, ptr, i32, i32, i32 }
%struct.ldmMatchCandidate_t = type { ptr, i32, i32, ptr }
%struct.rawSeqStore_t = type { ptr, i64, i64, i64, i64 }
%struct.ZSTD_blockState_t = type { ptr, ptr, %struct.ZSTD_matchState_t }
%struct.ZSTD_matchState_t = type { %struct.ZSTD_window_t, i32, i32, i32, i32, ptr, [8 x i32], i64, i32, ptr, ptr, ptr, i32, i32, %struct.optState_t, ptr, %struct.ZSTD_compressionParameters, ptr, i32, i32 }
%struct.optState_t = type { ptr, ptr, ptr, ptr, ptr, ptr, i32, i32, i32, i32, i32, i32, i32, i32, i32, ptr, i32 }
%struct.ZSTD_inBuffer_s = type { ptr, i64, i64 }
%struct.ZSTD_localDict = type { ptr, ptr, i64, i32, ptr }
%struct.ZSTD_prefixDict_s = type { ptr, i64, i32 }
%struct.ZSTD_blockSplitCtx = type { %struct.seqStore_t, %struct.seqStore_t, %struct.seqStore_t, %struct.seqStore_t, %struct.seqStore_t, [196 x i32], %struct.ZSTD_entropyCTablesMetadata_t }
%struct.ZSTD_entropyCTablesMetadata_t = type { %struct.ZSTD_hufCTablesMetadata_t, %struct.ZSTD_fseCTablesMetadata_t }
%struct.ZSTD_hufCTablesMetadata_t = type { i32, [128 x i8], i64 }
%struct.ZSTD_fseCTablesMetadata_t = type { i32, i32, i32, [133 x i8], i64, i64 }
%struct.ZSTD_externalMatchCtx = type { ptr, ptr, ptr, i64 }

; Function Attrs: nounwind uwtable
define dso_local i64 @ZSTD_CCtxParams_init(ptr noundef %0, i32 noundef %1) #0 {
  %3 = alloca i64, align 8
  %4 = alloca ptr, align 8
  %5 = alloca i32, align 4
  store ptr %0, ptr %4, align 8
  store i32 %1, ptr %5, align 4
  %6 = load ptr, ptr %4, align 8
  %7 = icmp ne ptr %6, null
  br i1 %7, label %9, label %8

8:                                                ; preds = %2
  store i64 -1, ptr %3, align 8
  br label %17

9:                                                ; preds = %2
  %10 = load ptr, ptr %4, align 8
  call void @llvm.memset.p0.i64(ptr align 8 %10, i8 0, i64 208, i1 false)
  %11 = load i32, ptr %5, align 4
  %12 = load ptr, ptr %4, align 8
  %13 = getelementptr inbounds %struct.ZSTD_CCtx_params_s, ptr %12, i32 0, i32 3
  store i32 %11, ptr %13, align 4
  %14 = load ptr, ptr %4, align 8
  %15 = getelementptr inbounds %struct.ZSTD_CCtx_params_s, ptr %14, i32 0, i32 2
  %16 = getelementptr inbounds %struct.ZSTD_frameParameters, ptr %15, i32 0, i32 0
  store i32 1, ptr %16, align 8
  store i64 0, ptr %3, align 8
  br label %17

17:                                               ; preds = %9, %8
  %18 = load i64, ptr %3, align 8
  ret i64 %18
}

; Function Attrs: nounwind uwtable
define dso_local i64 @ZSTD_CCtxParams_reset(ptr noundef %0) #0 {
  %2 = alloca ptr, align 8
  store ptr %0, ptr %2, align 8
  %3 = load ptr, ptr %2, align 8
  %4 = call i64 @ZSTD_CCtxParams_init(ptr noundef %3, i32 noundef 3)
  ret i64 %4
}

; Function Attrs: nounwind uwtable
define dso_local i64 @ZSTD_CCtx_refCDict(ptr noundef %0, ptr noundef %1) #0 {
  %3 = alloca i64, align 8
  %4 = alloca ptr, align 8
  %5 = alloca ptr, align 8
  store ptr %0, ptr %4, align 8
  store ptr %1, ptr %5, align 8
  %6 = load ptr, ptr %4, align 8
  %7 = getelementptr inbounds %struct.ZSTD_CCtx_s, ptr %6, i32 0, i32 37
  %8 = load i32, ptr %7, align 8
  %9 = icmp ne i32 %8, 0
  br i1 %9, label %10, label %11

10:                                               ; preds = %2
  store i64 -60, ptr %3, align 8
  br label %16

11:                                               ; preds = %2
  %12 = load ptr, ptr %4, align 8
  call void @ZSTD_clearAllDicts(ptr noundef %12)
  %13 = load ptr, ptr %5, align 8
  %14 = load ptr, ptr %4, align 8
  %15 = getelementptr inbounds %struct.ZSTD_CCtx_s, ptr %14, i32 0, i32 43
  store ptr %13, ptr %15, align 8
  store i64 0, ptr %3, align 8
  br label %16

16:                                               ; preds = %11, %10
  %17 = load i64, ptr %3, align 8
  ret i64 %17
}

; Function Attrs: nounwind uwtable
define internal i32 @ERR_isError(i64 noundef %0) #0 {
  %2 = alloca i64, align 8
  store i64 %0, ptr %2, align 8
  %3 = load i64, ptr %2, align 8
  %4 = icmp ugt i64 %3, -120
  %5 = zext i1 %4 to i32
  ret i32 %5
}

; Function Attrs: nounwind uwtable
define dso_local i64 @ZSTD_CCtx_reset(ptr noundef %0, i32 noundef %1) #0 {
  %3 = alloca i64, align 8
  %4 = alloca ptr, align 8
  %5 = alloca i32, align 4
  store ptr %0, ptr %4, align 8
  store i32 %1, ptr %5, align 4
  %6 = load i32, ptr %5, align 4
  %7 = icmp eq i32 %6, 1
  br i1 %7, label %11, label %8

8:                                                ; preds = %2
  %9 = load i32, ptr %5, align 4
  %10 = icmp eq i32 %9, 3
  br i1 %10, label %11, label %16

11:                                               ; preds = %8, %2
  %12 = load ptr, ptr %4, align 8
  %13 = getelementptr inbounds %struct.ZSTD_CCtx_s, ptr %12, i32 0, i32 37
  store i32 0, ptr %13, align 8
  %14 = load ptr, ptr %4, align 8
  %15 = getelementptr inbounds %struct.ZSTD_CCtx_s, ptr %14, i32 0, i32 10
  store i64 0, ptr %15, align 8
  br label %16

16:                                               ; preds = %11, %8
  %17 = load i32, ptr %5, align 4
  %18 = icmp eq i32 %17, 2
  br i1 %18, label %22, label %19

19:                                               ; preds = %16
  %20 = load i32, ptr %5, align 4
  %21 = icmp eq i32 %20, 3
  br i1 %21, label %22, label %35

22:                                               ; preds = %19, %16
  %23 = load ptr, ptr %4, align 8
  %24 = getelementptr inbounds %struct.ZSTD_CCtx_s, ptr %23, i32 0, i32 37
  %25 = load i32, ptr %24, align 8
  %26 = icmp ne i32 %25, 0
  br i1 %26, label %27, label %28

27:                                               ; preds = %22
  store i64 -60, ptr %3, align 8
  br label %36

28:                                               ; preds = %22
  %29 = load ptr, ptr %4, align 8
  call void @ZSTD_clearAllDicts(ptr noundef %29)
  %30 = load ptr, ptr %4, align 8
  %31 = getelementptr inbounds %struct.ZSTD_CCtx_s, ptr %30, i32 0, i32 47
  call void @llvm.memset.p0.i64(ptr align 8 %31, i8 0, i64 32, i1 false)
  %32 = load ptr, ptr %4, align 8
  %33 = getelementptr inbounds %struct.ZSTD_CCtx_s, ptr %32, i32 0, i32 3
  %34 = call i64 @ZSTD_CCtxParams_reset(ptr noundef %33)
  store i64 %34, ptr %3, align 8
  br label %36

35:                                               ; preds = %19
  store i64 0, ptr %3, align 8
  br label %36

36:                                               ; preds = %35, %28, %27
  %37 = load i64, ptr %3, align 8
  ret i64 %37
}

; Function Attrs: nounwind uwtable
define dso_local i64 @ZSTD_initCStream_usingCDict(ptr noundef %0, ptr noundef %1) #0 {
  %3 = alloca i64, align 8
  %4 = alloca ptr, align 8
  %5 = alloca ptr, align 8
  %6 = alloca i64, align 8
  %7 = alloca i64, align 8
  store ptr %0, ptr %4, align 8
  store ptr %1, ptr %5, align 8
  br label %8

8:                                                ; preds = %2
  %9 = load ptr, ptr %4, align 8
  %10 = call i64 @ZSTD_CCtx_reset(ptr noundef %9, i32 noundef 1)
  store i64 %10, ptr %6, align 8
  %11 = load i64, ptr %6, align 8
  %12 = call i32 @ERR_isError(i64 noundef %11)
  %13 = icmp ne i32 %12, 0
  br i1 %13, label %14, label %16

14:                                               ; preds = %8
  %15 = load i64, ptr %6, align 8
  store i64 %15, ptr %3, align 8
  br label %29

16:                                               ; preds = %8
  br label %17

17:                                               ; preds = %16
  br label %18

18:                                               ; preds = %17
  %19 = load ptr, ptr %4, align 8
  %20 = load ptr, ptr %5, align 8
  %21 = call i64 @ZSTD_CCtx_refCDict(ptr noundef %19, ptr noundef %20)
  store i64 %21, ptr %7, align 8
  %22 = load i64, ptr %7, align 8
  %23 = call i32 @ERR_isError(i64 noundef %22)
  %24 = icmp ne i32 %23, 0
  br i1 %24, label %25, label %27

25:                                               ; preds = %18
  %26 = load i64, ptr %7, align 8
  store i64 %26, ptr %3, align 8
  br label %29

27:                                               ; preds = %18
  br label %28

28:                                               ; preds = %27
  store i64 0, ptr %3, align 8
  br label %29

29:                                               ; preds = %28, %25, %14
  %30 = load i64, ptr %3, align 8
  ret i64 %30
}