; Function Attrs: nounwind uwtable
define dso_local noundef range(i64 -60, 1) i64 @ZSTD_initCStream_usingCDict(ptr noundef captures(none) initializes((736, 744), (3584, 3588), (3640, 3664), (3672, 3704)) %0, ptr noundef %1) local_unnamed_addr #1 {
  %3 = getelementptr inbounds nuw i8, ptr %0, i64 3584
  store i32 0, ptr %3, align 8
  %4 = getelementptr inbounds nuw i8, ptr %0, i64 736
  store i64 0, ptr %4, align 8
  tail call fastcc void @ZSTD_clearAllDicts(ptr noundef nonnull %0)
  %5 = getelementptr inbounds nuw i8, ptr %0, i64 3672
  store ptr %1, ptr %5, align 8
  ret i64 0
}